; Function Attrs: nounwind uwtable
define ptr @l_Array_forIn_x27Unsafe_loop___at___private_Lean_Elab_Print_0__Lean_Elab_Command_printStructure___spec__41___boxed(ptr noundef readonly captures(none) %0) local_unnamed_addr #0 {
  %2 = load ptr, ptr %0, align 8, !tbaa !4
  %3 = getelementptr inbounds nuw i8, ptr %0, i64 8
  %4 = load ptr, ptr %3, align 8, !tbaa !4
  %5 = getelementptr inbounds nuw i8, ptr %0, i64 16
  %6 = load ptr, ptr %5, align 8, !tbaa !4
  %7 = getelementptr inbounds nuw i8, ptr %0, i64 24
  %8 = load ptr, ptr %7, align 8, !tbaa !4
  %9 = getelementptr inbounds nuw i8, ptr %0, i64 32
  %10 = load ptr, ptr %9, align 8, !tbaa !4
  %11 = getelementptr inbounds nuw i8, ptr %0, i64 40
  %12 = load ptr, ptr %11, align 8, !tbaa !4
  %13 = getelementptr inbounds nuw i8, ptr %0, i64 48
  %14 = load ptr, ptr %13, align 8, !tbaa !4
  %15 = getelementptr inbounds nuw i8, ptr %0, i64 56
  %16 = load ptr, ptr %15, align 8, !tbaa !4
  %17 = getelementptr inbounds nuw i8, ptr %0, i64 64
  %18 = load ptr, ptr %17, align 8, !tbaa !4
  %19 = getelementptr inbounds nuw i8, ptr %0, i64 72
  %20 = load ptr, ptr %19, align 8, !tbaa !4
  %21 = getelementptr inbounds nuw i8, ptr %0, i64 80
  %22 = load ptr, ptr %21, align 8, !tbaa !4
  %23 = getelementptr inbounds nuw i8, ptr %0, i64 88
  %24 = load ptr, ptr %23, align 8, !tbaa !4
  %25 = getelementptr inbounds nuw i8, ptr %0, i64 96
  %26 = load ptr, ptr %25, align 8, !tbaa !4
  %27 = getelementptr inbounds nuw i8, ptr %0, i64 104
  %28 = load ptr, ptr %27, align 8, !tbaa !4
  %29 = getelementptr inbounds nuw i8, ptr %0, i64 112
  %30 = load ptr, ptr %29, align 8, !tbaa !4
  %31 = getelementptr inbounds nuw i8, ptr %0, i64 120
  %32 = load ptr, ptr %31, align 8, !tbaa !4
  %33 = getelementptr inbounds nuw i8, ptr %0, i64 128
  %34 = load ptr, ptr %33, align 8, !tbaa !4
  %35 = getelementptr i8, ptr %16, i64 8
  %.val65 = load i64, ptr %35, align 8, !tbaa !11
  %36 = ptrtoint ptr %16 to i64
  %37 = and i64 %36, 1
  %.not = icmp eq i64 %37, 0
  br i1 %.not, label %38, label %lean_dec.exit50

38:                                               ; preds = %1
  %39 = load i32, ptr %16, align 4, !tbaa !8
  %40 = icmp sgt i32 %39, 1
  br i1 %40, label %41, label %43, !prof !13

41:                                               ; preds = %38
  %42 = add nsw i32 %39, -1
  store i32 %42, ptr %16, align 4, !tbaa !8
  br label %lean_dec.exit50

43:                                               ; preds = %38
  %.not.i = icmp eq i32 %39, 0
  br i1 %.not.i, label %lean_dec.exit50, label %44

44:                                               ; preds = %43
  tail call void @lean_dec_ref_cold(ptr noundef nonnull %16) #5
  br label %lean_dec.exit50

lean_dec.exit50:                                  ; preds = %44, %43, %41, %1
  %45 = getelementptr i8, ptr %18, i64 8
  %.val = load i64, ptr %45, align 8, !tbaa !11
  %46 = ptrtoint ptr %18 to i64
  %47 = and i64 %46, 1
  %.not66 = icmp eq i64 %47, 0
  br i1 %.not66, label %48, label %lean_dec.exit49

48:                                               ; preds = %lean_dec.exit50
  %49 = load i32, ptr %18, align 4, !tbaa !8
  %50 = icmp sgt i32 %49, 1
  br i1 %50, label %51, label %53, !prof !13

51:                                               ; preds = %48
  %52 = add nsw i32 %49, -1
  store i32 %52, ptr %18, align 4, !tbaa !8
  br label %lean_dec.exit49

53:                                               ; preds = %48
  %.not.i51 = icmp eq i32 %49, 0
  br i1 %.not.i51, label %lean_dec.exit49, label %54

54:                                               ; preds = %53
  tail call void @lean_dec_ref_cold(ptr noundef nonnull %18) #5
  br label %lean_dec.exit49

lean_dec.exit49:                                  ; preds = %54, %53, %51, %lean_dec.exit50
  %55 = tail call ptr @l_Array_forIn_x27Unsafe_loop___at___private_Lean_Elab_Print_0__Lean_Elab_Command_printStructure___spec__41(ptr noundef %2, ptr noundef %4, ptr noundef %6, ptr noundef %8, ptr poison, ptr poison, ptr noundef %14, i64 noundef %.val65, i64 noundef %.val, ptr noundef %20, ptr poison, ptr poison, ptr noundef %26, ptr noundef %28, ptr noundef %30, ptr noundef %32, ptr noundef %34)
  %56 = ptrtoint ptr %24 to i64
  %57 = and i64 %56, 1
  %.not67 = icmp eq i64 %57, 0
  br i1 %.not67, label %58, label %lean_dec.exit48

58:                                               ; preds = %lean_dec.exit49
  %59 = load i32, ptr %24, align 4, !tbaa !8
  %60 = icmp sgt i32 %59, 1
  br i1 %60, label %61, label %63, !prof !13

61:                                               ; preds = %58
  %62 = add nsw i32 %59, -1
  store i32 %62, ptr %24, align 4, !tbaa !8
  br label %lean_dec.exit48

63:                                               ; preds = %58
  %.not.i53 = icmp eq i32 %59, 0
  br i1 %.not.i53, label %lean_dec.exit48, label %64

64:                                               ; preds = %63
  tail call void @lean_dec_ref_cold(ptr noundef nonnull %24) #5
  br label %lean_dec.exit48

lean_dec.exit48:                                  ; preds = %64, %63, %61, %lean_dec.exit49
  %65 = ptrtoint ptr %22 to i64
  %66 = and i64 %65, 1
  %.not68 = icmp eq i64 %66, 0
  br i1 %.not68, label %67, label %lean_dec.exit47

67:                                               ; preds = %lean_dec.exit48
  %68 = load i32, ptr %22, align 4, !tbaa !8
  %69 = icmp sgt i32 %68, 1
  br i1 %69, label %70, label %72, !prof !13

70:                                               ; preds = %67
  %71 = add nsw i32 %68, -1
  store i32 %71, ptr %22, align 4, !tbaa !8
  br label %lean_dec.exit47

72:                                               ; preds = %67
  %.not.i55 = icmp eq i32 %68, 0
  br i1 %.not.i55, label %lean_dec.exit47, label %73

73:                                               ; preds = %72
  tail call void @lean_dec_ref_cold(ptr noundef nonnull %22) #5
  br label %lean_dec.exit47

lean_dec.exit47:                                  ; preds = %73, %72, %70, %lean_dec.exit48
  %74 = ptrtoint ptr %14 to i64
  %75 = and i64 %74, 1
  %.not69 = icmp eq i64 %75, 0
  br i1 %.not69, label %76, label %lean_dec.exit46

76:                                               ; preds = %lean_dec.exit47
  %77 = load i32, ptr %14, align 4, !tbaa !8
  %78 = icmp sgt i32 %77, 1
  br i1 %78, label %79, label %81, !prof !13

79:                                               ; preds = %76
  %80 = add nsw i32 %77, -1
  store i32 %80, ptr %14, align 4, !tbaa !8
  br label %lean_dec.exit46

81:                                               ; preds = %76
  %.not.i57 = icmp eq i32 %77, 0
  br i1 %.not.i57, label %lean_dec.exit46, label %82

82:                                               ; preds = %81
  tail call void @lean_dec_ref_cold(ptr noundef nonnull %14) #5
  br label %lean_dec.exit46

lean_dec.exit46:                                  ; preds = %82, %81, %79, %lean_dec.exit47
  %83 = ptrtoint ptr %12 to i64
  %84 = and i64 %83, 1
  %.not70 = icmp eq i64 %84, 0
  br i1 %.not70, label %85, label %lean_dec.exit45

85:                                               ; preds = %lean_dec.exit46
  %86 = load i32, ptr %12, align 4, !tbaa !8
  %87 = icmp sgt i32 %86, 1
  br i1 %87, label %88, label %90, !prof !13

88:                                               ; preds = %85
  %89 = add nsw i32 %86, -1
  store i32 %89, ptr %12, align 4, !tbaa !8
  br label %lean_dec.exit45

90:                                               ; preds = %85
  %.not.i59 = icmp eq i32 %86, 0
  br i1 %.not.i59, label %lean_dec.exit45, label %91

91:                                               ; preds = %90
  tail call void @lean_dec_ref_cold(ptr noundef nonnull %12) #5
  br label %lean_dec.exit45

lean_dec.exit45:                                  ; preds = %91, %90, %88, %lean_dec.exit46
  %92 = ptrtoint ptr %10 to i64
  %93 = and i64 %92, 1
  %.not71 = icmp eq i64 %93, 0
  br i1 %.not71, label %94, label %lean_dec.exit44

94:                                               ; preds = %lean_dec.exit45
  %95 = load i32, ptr %10, align 4, !tbaa !8
  %96 = icmp sgt i32 %95, 1
  br i1 %96, label %97, label %99, !prof !13

97:                                               ; preds = %94
  %98 = add nsw i32 %95, -1
  store i32 %98, ptr %10, align 4, !tbaa !8
  br label %lean_dec.exit44

99:                                               ; preds = %94
  %.not.i61 = icmp eq i32 %95, 0
  br i1 %.not.i61, label %lean_dec.exit44, label %100

100:                                              ; preds = %99
  tail call void @lean_dec_ref_cold(ptr noundef nonnull %10) #5
  br label %lean_dec.exit44

lean_dec.exit44:                                  ; preds = %100, %99, %97, %lean_dec.exit45
  %101 = ptrtoint ptr %4 to i64
  %102 = and i64 %101, 1
  %.not72 = icmp eq i64 %102, 0
  br i1 %.not72, label %103, label %lean_dec.exit

103:                                              ; preds = %lean_dec.exit44
  %104 = load i32, ptr %4, align 4, !tbaa !8
  %105 = icmp sgt i32 %104, 1
  br i1 %105, label %106, label %108, !prof !13

106:                                              ; preds = %103
  %107 = add nsw i32 %104, -1
  store i32 %107, ptr %4, align 4, !tbaa !8
  br label %lean_dec.exit

108:                                              ; preds = %103
  %.not.i63 = icmp eq i32 %104, 0
  br i1 %.not.i63, label %lean_dec.exit, label %109

109:                                              ; preds = %108
  tail call void @lean_dec_ref_cold(ptr noundef nonnull %4) #5
  br label %lean_dec.exit

lean_dec.exit:                                    ; preds = %109, %108, %106, %lean_dec.exit44
  ret ptr %55
}